target datalayout = "e-m:e-p270:32:32-p271:32:32-p272:64:64-i64:64-i128:128-f80:128-n8:16:32:64-S128"
target triple = "x86_64-pc-linux-gnu"

@_ZN5Error8r_error_E = external global i32, align 4

; Function Attrs: mustprogress nounwind uwtable
define linkonce_odr dso_local noundef i32 @_ZN5Error9get_errorEv() #6 comdat align 2 {
  %1 = load i32, ptr @_ZN5Error8r_error_E, align 4, !tbaa !60
  ret i32 %1
}

; Function Attrs: mustprogress uwtable
define dso_local noundef ptr @_ZN18FunctionInvocation11make_randomEP8FunctionR9CGContext(ptr noundef %0, ptr noundef nonnull align 8 dereferenceable(216) %1) #4 align 2 personality ptr @__gxx_personality_v0 {
  %3 = alloca ptr, align 8
  %4 = alloca ptr, align 8
  %5 = alloca ptr, align 8
  %6 = alloca ptr, align 8
  %7 = alloca ptr, align 8
  %8 = alloca i32, align 4
  %9 = alloca i32, align 4
  store ptr %0, ptr %4, align 8, !tbaa !19
  store ptr %1, ptr %5, align 8, !tbaa !8
  call void @llvm.lifetime.start.p0(i64 8, ptr %6) #3
  %10 = call noalias noundef nonnull ptr @_Znwm(i64 noundef 72) #18
  %11 = load ptr, ptr %4, align 8, !tbaa !19
  invoke void @_ZN22FunctionInvocationUserC1EP8FunctionbPK11SafeOpFlags(ptr noundef nonnull align 8 dereferenceable(65) %10, ptr noundef %11, i1 noundef zeroext true, ptr noundef null)
          to label %12 unwind label %27

12:                                               ; preds = %2
  store ptr %10, ptr %6, align 8, !tbaa !21
  %13 = load ptr, ptr %6, align 8, !tbaa !21
  %14 = load ptr, ptr %4, align 8, !tbaa !19
  %15 = load ptr, ptr %5, align 8, !tbaa !8
  %16 = call noundef zeroext i1 @_ZN22FunctionInvocationUser16build_invocationEP8FunctionR9CGContext(ptr noundef nonnull align 8 dereferenceable(65) %13, ptr noundef %14, ptr noundef nonnull align 8 dereferenceable(216) %15)
  %17 = call noundef i32 @_ZN5Error9get_errorEv()
  %18 = icmp ne i32 %17, 0
  br i1 %18, label %19, label %31

19:                                               ; preds = %12
  %20 = load ptr, ptr %6, align 8, !tbaa !21
  %21 = icmp eq ptr %20, null
  br i1 %21, label %26, label %22

22:                                               ; preds = %19
  %23 = load ptr, ptr %20, align 8, !tbaa !91
  %24 = getelementptr inbounds ptr, ptr %23, i64 1
  %25 = load ptr, ptr %24, align 8
  call void %25(ptr noundef nonnull align 8 dereferenceable(65) %20) #3
  br label %26

26:                                               ; preds = %22, %19
  store ptr null, ptr %3, align 8
  store i32 1, ptr %9, align 4
  br label %33

27:                                               ; preds = %2
  %28 = landingpad { ptr, i32 }
          cleanup
  %29 = extractvalue { ptr, i32 } %28, 0
  store ptr %29, ptr %7, align 8
  %30 = extractvalue { ptr, i32 } %28, 1
  store i32 %30, ptr %8, align 4
  call void @_ZdlPvm(ptr noundef %10, i64 noundef 72) #19
  call void @llvm.lifetime.end.p0(i64 8, ptr %6) #3
  br label %35

31:                                               ; preds = %12
  %32 = load ptr, ptr %6, align 8, !tbaa !21
  store ptr %32, ptr %3, align 8
  store i32 1, ptr %9, align 4
  br label %33

33:                                               ; preds = %31, %26
  call void @llvm.lifetime.end.p0(i64 8, ptr %6) #3
  %34 = load ptr, ptr %3, align 8
  ret ptr %34

35:                                               ; preds = %27
  %36 = load ptr, ptr %7, align 8
  %37 = load i32, ptr %8, align 4
  %38 = insertvalue { ptr, i32 } poison, ptr %36, 0
  %39 = insertvalue { ptr, i32 } %38, i32 %37, 1
  resume { ptr, i32 } %39
}