; Function Attrs: mustprogress uwtable
define dso_local noundef ptr @_ZN18FunctionInvocation11make_randomEP8FunctionR9CGContext(ptr noundef %0, ptr noundef nonnull align 8 dereferenceable(216) %1) local_unnamed_addr #3 align 2 personality ptr @__gxx_personality_v0 {
  %3 = tail call noalias noundef nonnull dereferenceable(72) ptr @_Znwm(i64 noundef 72) #24
  invoke void @_ZN22FunctionInvocationUserC1EP8FunctionbPK11SafeOpFlags(ptr noundef nonnull align 8 dereferenceable(65) %3, ptr noundef %0, i1 noundef zeroext true, ptr noundef null)
          to label %4 unwind label %11

4:                                                ; preds = %2
  %5 = tail call noundef zeroext i1 @_ZN22FunctionInvocationUser16build_invocationEP8FunctionR9CGContext(ptr noundef nonnull align 8 dereferenceable(65) %3, ptr noundef %0, ptr noundef nonnull align 8 dereferenceable(216) %1)
  %6 = load i32, ptr @_ZN5Error8r_error_E, align 4, !tbaa !98
  %.not = icmp eq i32 %6, 0
  br i1 %.not, label %13, label %7

7:                                                ; preds = %4
  %8 = load ptr, ptr %3, align 8, !tbaa !100
  %9 = getelementptr inbounds nuw i8, ptr %8, i64 8
  %10 = load ptr, ptr %9, align 8
  tail call void %10(ptr noundef nonnull align 8 dereferenceable(65) %3) #26
  br label %13

11:                                               ; preds = %2
  %12 = landingpad { ptr, i32 }
          cleanup
  tail call void @_ZdlPvm(ptr noundef nonnull %3, i64 noundef 72) #25
  resume { ptr, i32 } %12

13:                                               ; preds = %4, %7
  %.0 = phi ptr [ null, %7 ], [ %3, %4 ]
  ret ptr %.0
}